(lp0
(lp1
F7.143644332885742
aF3.238720655441284
aF2.6598474979400635
aF2.1179652214050293
aF1.3910702466964722
aF1.1428792476654053
aF1.123781681060791
aF0.5646283626556396
aF0.547297477722168
aF0.11379697918891907
aa(lp2
F8.0012845993042
aF7.143644332885742
aF3.238720655441284
aF2.6598474979400635
aF2.1179652214050293
aF1.3910702466964722
aF1.1428792476654053
aF1.123781681060791
aF0.5646283626556396
aF0.547297477722168
aa(lp3
F8.0012845993042
aF7.143644332885742
aF4.462165355682373
aF3.238720655441284
aF2.6598474979400635
aF2.1179652214050293
aF1.3910702466964722
aF1.1428792476654053
aF1.123781681060791
aF0.5646283626556396
aa(lp4
F13.718832969665527
aF8.0012845993042
aF7.143644332885742
aF4.462165355682373
aF3.238720655441284
aF2.6598474979400635
aF2.1179652214050293
aF1.3910702466964722
aF1.1428792476654053
aF1.123781681060791
aa(lp5
F13.718832969665527
aF8.0012845993042
aF7.143644332885742
aF4.462165355682373
aF4.435018539428711
aF3.238720655441284
aF2.6598474979400635
aF2.1179652214050293
aF1.3910702466964722
aF1.1428792476654053
aa(lp6
F13.718832969665527
aF12.93917465209961
aF8.0012845993042
aF7.143644332885742
aF4.462165355682373
aF4.435018539428711
aF3.238720655441284
aF2.6598474979400635
aF2.1179652214050293
aF1.3910702466964722
aa(lp7
F13.718832969665527
aF12.93917465209961
aF9.060739517211914
aF8.0012845993042
aF7.143644332885742
aF4.462165355682373
aF4.435018539428711
aF3.238720655441284
aF2.6598474979400635
aF2.1179652214050293
aa(lp8
F13.718832969665527
aF12.93917465209961
aF9.060739517211914
aF8.0012845993042
aF7.143644332885742
aF6.840868949890137
aF4.462165355682373
aF4.435018539428711
aF3.238720655441284
aF2.6598474979400635
aa(lp9
F13.718832969665527
aF12.93917465209961
aF9.060739517211914
aF8.0012845993042
aF7.143644332885742
aF6.840868949890137
aF4.462165355682373
aF4.435018539428711
aF4.253166675567627
aF3.238720655441284
aa(lp10
F13.718832969665527
aF12.93917465209961
aF12.22234058380127
aF9.060739517211914
aF8.0012845993042
aF7.143644332885742
aF6.840868949890137
aF4.462165355682373
aF4.435018539428711
aF4.253166675567627
aa(lp11
F14.248988151550293
aF13.816566467285156
aF12.328075408935547
aF9.686541557312012
aF9.035831451416016
aF7.4522247314453125
aF7.397849082946777
aF7.183435440063477
aF3.0541698932647705
aF2.3735389709472656
aa(lp12
F14.248988151550293
aF13.816566467285156
aF12.328075408935547
aF9.686541557312012
aF9.035831451416016
aF7.4522247314453125
aF7.397849082946777
aF7.183435440063477
aF5.829226970672607
aF3.0541698932647705
aa(lp13
F14.248988151550293
aF13.816566467285156
aF12.328075408935547
aF9.686541557312012
aF9.035831451416016
aF8.902975082397461
aF7.4522247314453125
aF7.397849082946777
aF7.183435440063477
aF5.829226970672607
aa(lp14
F13.950345993041992
aF13.874343872070312
aF11.606497764587402
aF11.54511833190918
aF11.46381950378418
aF11.45561408996582
aF7.38488245010376
aF5.876251220703125
aF3.9454751014709473
aF1.8074053525924683
aa(lp15
F20.19405746459961
aF13.950345993041992
aF13.874343872070312
aF11.606497764587402
aF11.54511833190918
aF11.46381950378418
aF11.45561408996582
aF7.38488245010376
aF5.876251220703125
aF3.9454751014709473
aa(lp16
F20.54790687561035
aF20.19405746459961
aF13.950345993041992
aF13.874343872070312
aF11.606497764587402
aF11.54511833190918
aF11.46381950378418
aF11.45561408996582
aF7.38488245010376
aF5.876251220703125
aa(lp17
F22.089733123779297
aF21.742141723632812
aF17.92471694946289
aF14.822094917297363
aF13.717494010925293
aF10.125362396240234
aF10.032123565673828
aF9.620712280273438
aF9.586127281188965
aF7.536834716796875
aa(lp18
F22.089733123779297
aF21.742141723632812
aF19.912145614624023
aF17.92471694946289
aF14.822094917297363
aF13.717494010925293
aF10.125362396240234
aF10.032123565673828
aF9.620712280273438
aF9.586127281188965
aa(lp19
F22.089733123779297
aF21.742141723632812
aF19.912145614624023
aF19.409486770629883
aF17.92471694946289
aF14.822094917297363
aF13.717494010925293
aF10.125362396240234
aF10.032123565673828
aF9.620712280273438
aa(lp20
F22.711326599121094
aF22.089733123779297
aF21.742141723632812
aF19.912145614624023
aF19.409486770629883
aF17.92471694946289
aF14.822094917297363
aF13.717494010925293
aF10.125362396240234
aF10.032123565673828
aa(lp21
F22.711326599121094
aF22.089733123779297
aF21.742141723632812
aF20.8770809173584
aF19.912145614624023
aF19.409486770629883
aF17.92471694946289
aF14.822094917297363
aF13.717494010925293
aF10.125362396240234
aa(lp22
F22.711326599121094
aF22.089733123779297
aF21.742141723632812
aF20.8770809173584
aF20.174190521240234
aF19.912145614624023
aF19.409486770629883
aF17.92471694946289
aF14.822094917297363
aF13.717494010925293
aa(lp23
F22.711326599121094
aF22.089733123779297
aF21.742141723632812
aF21.490047454833984
aF20.8770809173584
aF20.174190521240234
aF19.912145614624023
aF19.409486770629883
aF17.92471694946289
aF14.822094917297363
aa(lp24
F22.711326599121094
aF22.089733123779297
aF21.742141723632812
aF21.490047454833984
aF21.138412475585938
aF20.8770809173584
aF20.174190521240234
aF19.912145614624023
aF19.409486770629883
aF17.92471694946289
aa(lp25
F22.711326599121094
aF22.089733123779297
aF21.742141723632812
aF21.490047454833984
aF21.138412475585938
aF20.8770809173584
aF20.174190521240234
aF20.11402702331543
aF19.912145614624023
aF19.409486770629883
aa(lp26
F22.711326599121094
aF22.089733123779297
aF21.742141723632812
aF21.490047454833984
aF21.138412475585938
aF20.8770809173584
aF20.174190521240234
aF20.11402702331543
aF19.912145614624023
aF19.612409591674805
aa(lp27
F22.711326599121094
aF22.089733123779297
aF21.742141723632812
aF21.490047454833984
aF21.138412475585938
aF20.8770809173584
aF20.174190521240234
aF20.11402702331543
aF19.912145614624023
aF18.19942283630371
aa(lp28
F22.711326599121094
aF22.089733123779297
aF21.742141723632812
aF21.490047454833984
aF21.138412475585938
aF20.8770809173584
aF20.706958770751953
aF20.174190521240234
aF20.11402702331543
aF19.912145614624023
aa(lp29
F23.774755477905273
aF22.711326599121094
aF22.089733123779297
aF21.742141723632812
aF21.490047454833984
aF21.138412475585938
aF20.8770809173584
aF20.706958770751953
aF20.174190521240234
aF20.11402702331543
aa(lp30
F23.920745849609375
aF23.774755477905273
aF22.711326599121094
aF22.089733123779297
aF21.742141723632812
aF21.490047454833984
aF21.138412475585938
aF20.8770809173584
aF20.706958770751953
aF20.174190521240234
aa(lp31
F23.920745849609375
aF23.774755477905273
aF22.711326599121094
aF22.35718536376953
aF22.089733123779297
aF21.742141723632812
aF21.490047454833984
aF21.138412475585938
aF20.8770809173584
aF20.706958770751953
aa(lp32
F23.920745849609375
aF23.774755477905273
aF23.514307022094727
aF22.711326599121094
aF22.35718536376953
aF22.089733123779297
aF21.742141723632812
aF21.490047454833984
aF21.138412475585938
aF20.8770809173584
aa(lp33
F23.920745849609375
aF23.774755477905273
aF23.514307022094727
aF22.711326599121094
aF22.35718536376953
aF22.089733123779297
aF21.742141723632812
aF21.620765686035156
aF21.490047454833984
aF21.138412475585938
aa(lp34
F23.920745849609375
aF23.774755477905273
aF23.514307022094727
aF22.711326599121094
aF22.642580032348633
aF22.35718536376953
aF22.089733123779297
aF21.742141723632812
aF21.620765686035156
aF21.490047454833984
aa(lp35
F23.920745849609375
aF23.777477264404297
aF23.774755477905273
aF23.514307022094727
aF22.711326599121094
aF22.642580032348633
aF22.35718536376953
aF22.089733123779297
aF21.742141723632812
aF21.620765686035156
aa(lp36
F26.155427932739258
aF23.920745849609375
aF23.777477264404297
aF23.774755477905273
aF23.514307022094727
aF22.711326599121094
aF22.642580032348633
aF22.35718536376953
aF22.089733123779297
aF21.742141723632812
aa(lp37
F26.155427932739258
aF23.920745849609375
aF23.777477264404297
aF23.774755477905273
aF23.514307022094727
aF22.711326599121094
aF22.642580032348633
aF22.528398513793945
aF22.35718536376953
aF22.089733123779297
aa(lp38
F25.444257736206055
aF25.270336151123047
aF25.269145965576172
aF25.073150634765625
aF24.84128189086914
aF24.751127243041992
aF24.36725616455078
aF24.331390380859375
aF24.030170440673828
aF21.841552734375
aa(lp39
F25.544490814208984
aF25.444257736206055
aF25.270336151123047
aF25.269145965576172
aF25.073150634765625
aF24.84128189086914
aF24.751127243041992
aF24.36725616455078
aF24.331390380859375
aF24.030170440673828
aa(lp40
F27.797693252563477
aF25.544490814208984
aF25.444257736206055
aF25.270336151123047
aF25.269145965576172
aF25.073150634765625
aF24.84128189086914
aF24.751127243041992
aF24.36725616455078
aF24.331390380859375
aa(lp41
F27.797693252563477
aF25.544490814208984
aF25.444257736206055
aF25.270336151123047
aF25.269145965576172
aF25.073150634765625
aF24.84128189086914
aF24.751127243041992
aF24.36725616455078
aF23.644685745239258
aa(lp42
F27.797693252563477
aF25.544490814208984
aF25.444257736206055
aF25.270336151123047
aF25.269145965576172
aF25.073150634765625
aF24.84128189086914
aF24.751127243041992
aF24.36725616455078
aF22.82278823852539
aa(lp43
F27.077959060668945
aF26.49491310119629
aF25.746374130249023
aF25.53463363647461
aF25.259166717529297
aF25.20090675354004
aF25.125497817993164
aF24.902326583862305
aF24.301034927368164
aF22.040197372436523
aa(lp44
F27.077959060668945
aF26.49491310119629
aF25.746374130249023
aF25.53463363647461
aF25.259166717529297
aF25.20090675354004
aF25.125497817993164
aF24.902326583862305
aF24.301034927368164
aF24.016660690307617
aa(lp45
F27.077959060668945
aF26.49491310119629
aF25.746374130249023
aF25.53463363647461
aF25.259166717529297
aF25.20090675354004
aF25.125497817993164
aF24.902326583862305
aF24.505643844604492
aF24.301034927368164
aa(lp46
F27.077959060668945
aF26.49491310119629
aF25.886247634887695
aF25.746374130249023
aF25.53463363647461
aF25.259166717529297
aF25.20090675354004
aF25.125497817993164
aF24.902326583862305
aF24.505643844604492
aa.